; Function Attrs: mustprogress nounwind uwtable
define internal fastcc noundef zeroext i1 @_ZN5clang19RecursiveASTVisitorIN12_GLOBAL__N_123ZeroOutInDeallocRemoverEE22VisitOMPNumTeamsClauseEPNS_17OMPNumTeamsClauseE(ptr noundef nonnull align 1 dereferenceable(1) %0, ptr noundef readonly %1) unnamed_addr #0 align 2 {
  %3 = getelementptr inbounds nuw i8, ptr %1, i64 16
  %4 = load i32, ptr %3, align 4
  %5 = zext i32 %4 to i64
  %.idx = shl nuw nsw i64 %5, 3
  %6 = getelementptr inbounds i8, ptr %1, i64 %.idx
  %.ptr6 = getelementptr inbounds i8, ptr %6, i64 40
  %.not.i4 = icmp eq i32 %4, 0
  br i1 %.not.i4, label %._crit_edge, label %.lr.ph.preheader

.lr.ph.preheader:                                 ; preds = %2
  %.ptr = getelementptr inbounds i8, ptr %1, i64 40
  br label %.lr.ph

7:                                                ; preds = %.lr.ph
  %8 = getelementptr inbounds i8, ptr %.010.i5, i64 8
  %.not.i = icmp eq ptr %8, %.ptr6
  br i1 %.not.i, label %._crit_edge, label %.lr.ph

.lr.ph:                                           ; preds = %.lr.ph.preheader, %7
  %.010.i5 = phi ptr [ %8, %7 ], [ %.ptr, %.lr.ph.preheader ]
  %9 = load ptr, ptr %.010.i5, align 8
  %10 = tail call fastcc noundef zeroext i1 @_ZN5clang19RecursiveASTVisitorIN12_GLOBAL__N_123ZeroOutInDeallocRemoverEE12TraverseStmtEPNS_4StmtEPN4llvm15SmallVectorImplINS6_14PointerIntPairIS5_Lj1EbNS6_21PointerLikeTypeTraitsIS5_EENS6_18PointerIntPairInfoIS5_Lj1ESA_EEEEEE(ptr noundef nonnull align 1 dereferenceable(1) %0, ptr noundef %9, ptr noundef null)
  br i1 %10, label %7, label %_ZN5clang19RecursiveASTVisitorIN12_GLOBAL__N_123ZeroOutInDeallocRemoverEE18VisitOMPClauseListINS_17OMPNumTeamsClauseEEEbPT_.exit

._crit_edge:                                      ; preds = %7, %2
  %11 = getelementptr inbounds i8, ptr %1, i64 24
  %12 = load ptr, ptr %11, align 8
  %13 = tail call fastcc noundef zeroext i1 @_ZN5clang19RecursiveASTVisitorIN12_GLOBAL__N_123ZeroOutInDeallocRemoverEE12TraverseStmtEPNS_4StmtEPN4llvm15SmallVectorImplINS6_14PointerIntPairIS5_Lj1EbNS6_21PointerLikeTypeTraitsIS5_EENS6_18PointerIntPairInfoIS5_Lj1ESA_EEEEEE(ptr noundef nonnull align 1 dereferenceable(1) %0, ptr noundef %12, ptr noundef null)
  br label %_ZN5clang19RecursiveASTVisitorIN12_GLOBAL__N_123ZeroOutInDeallocRemoverEE18VisitOMPClauseListINS_17OMPNumTeamsClauseEEEbPT_.exit

_ZN5clang19RecursiveASTVisitorIN12_GLOBAL__N_123ZeroOutInDeallocRemoverEE18VisitOMPClauseListINS_17OMPNumTeamsClauseEEEbPT_.exit: ; preds = %.lr.ph, %._crit_edge
  %.0 = phi i1 [ %13, %._crit_edge ], [ false, %.lr.ph ]
  ret i1 %.0
}